; Function Attrs: mustprogress nounwind uwtable
define void @_ZN6icu_776number4impl14SymbolsWrapper9doCleanupEv(ptr noundef nonnull readonly align 8 captures(none) dereferenceable(16) %0) local_unnamed_addr #0 align 2 {
  %2 = load i32, ptr %0, align 8, !tbaa !15
  switch i32 %2, label %14 [
    i32 2, label %7
    i32 1, label %3
  ]

3:                                                ; preds = %1
  %4 = getelementptr inbounds nuw i8, ptr %0, i64 8
  %5 = load ptr, ptr %4, align 8, !tbaa !18
  %6 = icmp eq ptr %5, null
  br i1 %6, label %14, label %.sink.split

7:                                                ; preds = %1
  %8 = getelementptr inbounds nuw i8, ptr %0, i64 8
  %9 = load ptr, ptr %8, align 8, !tbaa !18
  %10 = icmp eq ptr %9, null
  br i1 %10, label %14, label %.sink.split

.sink.split:                                      ; preds = %7, %3
  %.sink5 = phi ptr [ %5, %3 ], [ %9, %7 ]
  %11 = load ptr, ptr %.sink5, align 8, !tbaa !19
  %12 = getelementptr inbounds nuw i8, ptr %11, i64 8
  %13 = load ptr, ptr %12, align 8
  tail call void %13(ptr noundef nonnull align 8 dereferenceable(86) %.sink5) #13
  br label %14

14:                                               ; preds = %.sink.split, %7, %3, %1
  ret void
}